target datalayout = "e-m:e-p270:32:32-p271:32:32-p272:64:64-i64:64-i128:128-f80:128-n8:16:32:64-S128"
target triple = "x86_64-pc-linux-gnu"

%struct.AVFilterContext = type { ptr, ptr, ptr, ptr, ptr, i32, ptr, ptr, i32, ptr, ptr, i32, i32, ptr, ptr, ptr, ptr, i32, ptr, i32, i32 }
%struct.AudioRNNContext = type { ptr, ptr, float, i32, ptr, [960 x float], [24 x [24 x float]], [2 x ptr], ptr, [8 x i8] }
%struct.DenoiseState = type { [480 x float], [8 x [22 x float]], i32, [12 x i8], [480 x float], [1728 x float], [1728 x float], float, i32, [2 x float], [22 x float], [480 x float], [2 x %struct.RNNState], ptr, ptr, ptr, ptr, [8 x i8] }
%struct.RNNState = type { ptr, ptr, ptr, ptr }
%struct.AVFilterLink = type { ptr, ptr, ptr, ptr, i32, i32, i32, i32, %struct.AVRational, i32, i32, i32, %struct.AVChannelLayout, %struct.AVRational, ptr, i32, %struct.AVFilterFormatsConfig, %struct.AVFilterFormatsConfig }
%struct.AVChannelLayout = type { i32, i32, %union.anon.1, ptr }
%union.anon.1 = type { i64 }
%struct.AVRational = type { i32, i32 }
%struct.AVFilterFormatsConfig = type { ptr, ptr, ptr, ptr, ptr }
%struct.RNNModel = type { i32, ptr, i32, ptr, i32, ptr, i32, ptr, i32, ptr, i32, ptr }

; Function Attrs: nounwind uwtable
define internal i32 @config_input(ptr noundef %0) #1 {
  %2 = alloca i32, align 4
  %3 = alloca ptr, align 8
  %4 = alloca ptr, align 8
  %5 = alloca ptr, align 8
  %6 = alloca i32, align 4
  %7 = alloca i32, align 4
  %8 = alloca i32, align 4
  %9 = alloca ptr, align 8
  %10 = alloca i32, align 4
  %11 = alloca ptr, align 8
  %12 = alloca float, align 4
  store ptr %0, ptr %3, align 8, !tbaa !48
  call void @llvm.lifetime.start.p0(i64 8, ptr %4) #11
  %13 = load ptr, ptr %3, align 8, !tbaa !48
  %14 = getelementptr inbounds nuw %struct.AVFilterLink, ptr %13, i32 0, i32 2
  %15 = load ptr, ptr %14, align 8, !tbaa !56
  store ptr %15, ptr %4, align 8, !tbaa !4
  call void @llvm.lifetime.start.p0(i64 8, ptr %5) #11
  %16 = load ptr, ptr %4, align 8, !tbaa !4
  %17 = getelementptr inbounds nuw %struct.AVFilterContext, ptr %16, i32 0, i32 9
  %18 = load ptr, ptr %17, align 8, !tbaa !9
  store ptr %18, ptr %5, align 8, !tbaa !22
  call void @llvm.lifetime.start.p0(i64 4, ptr %6) #11
  store i32 0, ptr %6, align 4, !tbaa !29
  %19 = load ptr, ptr %3, align 8, !tbaa !48
  %20 = getelementptr inbounds nuw %struct.AVFilterLink, ptr %19, i32 0, i32 12
  %21 = getelementptr inbounds nuw %struct.AVChannelLayout, ptr %20, i32 0, i32 1
  %22 = load i32, ptr %21, align 4, !tbaa !64
  %23 = load ptr, ptr %5, align 8, !tbaa !22
  %24 = getelementptr inbounds nuw %struct.AudioRNNContext, ptr %23, i32 0, i32 3
  store i32 %22, ptr %24, align 4, !tbaa !35
  %25 = load ptr, ptr %5, align 8, !tbaa !22
  %26 = getelementptr inbounds nuw %struct.AudioRNNContext, ptr %25, i32 0, i32 4
  %27 = load ptr, ptr %26, align 8, !tbaa !36
  %28 = icmp ne ptr %27, null
  br i1 %28, label %37, label %29

29:                                               ; preds = %1
  %30 = load ptr, ptr %5, align 8, !tbaa !22
  %31 = getelementptr inbounds nuw %struct.AudioRNNContext, ptr %30, i32 0, i32 3
  %32 = load i32, ptr %31, align 4, !tbaa !35
  %33 = sext i32 %32 to i64
  %34 = call noalias ptr @av_calloc(i64 noundef %33, i64 noundef 20512)
  %35 = load ptr, ptr %5, align 8, !tbaa !22
  %36 = getelementptr inbounds nuw %struct.AudioRNNContext, ptr %35, i32 0, i32 4
  store ptr %34, ptr %36, align 8, !tbaa !36
  br label %37

37:                                               ; preds = %29, %1
  %38 = load ptr, ptr %5, align 8, !tbaa !22
  %39 = getelementptr inbounds nuw %struct.AudioRNNContext, ptr %38, i32 0, i32 4
  %40 = load ptr, ptr %39, align 8, !tbaa !36
  %41 = icmp ne ptr %40, null
  br i1 %41, label %43, label %42

42:                                               ; preds = %37
  store i32 -12, ptr %2, align 4
  store i32 1, ptr %7, align 4
  br label %198

43:                                               ; preds = %37
  call void @llvm.lifetime.start.p0(i64 4, ptr %8) #11
  store i32 0, ptr %8, align 4, !tbaa !29
  br label %44

44:                                               ; preds = %136, %43
  %45 = load i32, ptr %8, align 4, !tbaa !29
  %46 = load ptr, ptr %5, align 8, !tbaa !22
  %47 = getelementptr inbounds nuw %struct.AudioRNNContext, ptr %46, i32 0, i32 3
  %48 = load i32, ptr %47, align 4, !tbaa !35
  %49 = icmp slt i32 %45, %48
  br i1 %49, label %51, label %50

50:                                               ; preds = %44
  store i32 2, ptr %7, align 4
  br label %139

51:                                               ; preds = %44
  call void @llvm.lifetime.start.p0(i64 8, ptr %9) #11
  %52 = load ptr, ptr %5, align 8, !tbaa !22
  %53 = getelementptr inbounds nuw %struct.AudioRNNContext, ptr %52, i32 0, i32 4
  %54 = load ptr, ptr %53, align 8, !tbaa !36
  %55 = load i32, ptr %8, align 4, !tbaa !29
  %56 = sext i32 %55 to i64
  %57 = getelementptr inbounds %struct.DenoiseState, ptr %54, i64 %56
  store ptr %57, ptr %9, align 8, !tbaa !65
  %58 = load ptr, ptr %5, align 8, !tbaa !22
  %59 = getelementptr inbounds nuw %struct.AudioRNNContext, ptr %58, i32 0, i32 7
  %60 = getelementptr inbounds [2 x ptr], ptr %59, i64 0, i64 0
  %61 = load ptr, ptr %60, align 16, !tbaa !41
  %62 = load ptr, ptr %9, align 8, !tbaa !65
  %63 = getelementptr inbounds nuw %struct.DenoiseState, ptr %62, i32 0, i32 12
  %64 = getelementptr inbounds [2 x %struct.RNNState], ptr %63, i64 0, i64 0
  %65 = getelementptr inbounds nuw %struct.RNNState, ptr %64, i32 0, i32 3
  store ptr %61, ptr %65, align 8, !tbaa !66
  %66 = load ptr, ptr %5, align 8, !tbaa !22
  %67 = getelementptr inbounds nuw %struct.AudioRNNContext, ptr %66, i32 0, i32 7
  %68 = getelementptr inbounds [2 x ptr], ptr %67, i64 0, i64 0
  %69 = load ptr, ptr %68, align 16, !tbaa !41
  %70 = getelementptr inbounds nuw %struct.RNNModel, ptr %69, i32 0, i32 2
  %71 = load i32, ptr %70, align 8, !tbaa !68
  %72 = add nsw i32 %71, 16
  %73 = sub nsw i32 %72, 1
  %74 = and i32 %73, -16
  %75 = sext i32 %74 to i64
  %76 = call noalias ptr @av_calloc(i64 noundef 4, i64 noundef %75)
  %77 = load ptr, ptr %9, align 8, !tbaa !65
  %78 = getelementptr inbounds nuw %struct.DenoiseState, ptr %77, i32 0, i32 12
  %79 = getelementptr inbounds [2 x %struct.RNNState], ptr %78, i64 0, i64 0
  %80 = getelementptr inbounds nuw %struct.RNNState, ptr %79, i32 0, i32 0
  store ptr %76, ptr %80, align 8, !tbaa !72
  %81 = load ptr, ptr %5, align 8, !tbaa !22
  %82 = getelementptr inbounds nuw %struct.AudioRNNContext, ptr %81, i32 0, i32 7
  %83 = getelementptr inbounds [2 x ptr], ptr %82, i64 0, i64 0
  %84 = load ptr, ptr %83, align 16, !tbaa !41
  %85 = getelementptr inbounds nuw %struct.RNNModel, ptr %84, i32 0, i32 4
  %86 = load i32, ptr %85, align 8, !tbaa !73
  %87 = add nsw i32 %86, 16
  %88 = sub nsw i32 %87, 1
  %89 = and i32 %88, -16
  %90 = sext i32 %89 to i64
  %91 = call noalias ptr @av_calloc(i64 noundef 4, i64 noundef %90)
  %92 = load ptr, ptr %9, align 8, !tbaa !65
  %93 = getelementptr inbounds nuw %struct.DenoiseState, ptr %92, i32 0, i32 12
  %94 = getelementptr inbounds [2 x %struct.RNNState], ptr %93, i64 0, i64 0
  %95 = getelementptr inbounds nuw %struct.RNNState, ptr %94, i32 0, i32 1
  store ptr %91, ptr %95, align 8, !tbaa !74
  %96 = load ptr, ptr %5, align 8, !tbaa !22
  %97 = getelementptr inbounds nuw %struct.AudioRNNContext, ptr %96, i32 0, i32 7
  %98 = getelementptr inbounds [2 x ptr], ptr %97, i64 0, i64 0
  %99 = load ptr, ptr %98, align 16, !tbaa !41
  %100 = getelementptr inbounds nuw %struct.RNNModel, ptr %99, i32 0, i32 6
  %101 = load i32, ptr %100, align 8, !tbaa !75
  %102 = add nsw i32 %101, 16
  %103 = sub nsw i32 %102, 1
  %104 = and i32 %103, -16
  %105 = sext i32 %104 to i64
  %106 = call noalias ptr @av_calloc(i64 noundef 4, i64 noundef %105)
  %107 = load ptr, ptr %9, align 8, !tbaa !65
  %108 = getelementptr inbounds nuw %struct.DenoiseState, ptr %107, i32 0, i32 12
  %109 = getelementptr inbounds [2 x %struct.RNNState], ptr %108, i64 0, i64 0
  %110 = getelementptr inbounds nuw %struct.RNNState, ptr %109, i32 0, i32 2
  store ptr %106, ptr %110, align 8, !tbaa !76
  %111 = load ptr, ptr %9, align 8, !tbaa !65
  %112 = getelementptr inbounds nuw %struct.DenoiseState, ptr %111, i32 0, i32 12
  %113 = getelementptr inbounds [2 x %struct.RNNState], ptr %112, i64 0, i64 0
  %114 = getelementptr inbounds nuw %struct.RNNState, ptr %113, i32 0, i32 0
  %115 = load ptr, ptr %114, align 8, !tbaa !72
  %116 = icmp ne ptr %115, null
  br i1 %116, label %117, label %131

117:                                              ; preds = %51
  %118 = load ptr, ptr %9, align 8, !tbaa !65
  %119 = getelementptr inbounds nuw %struct.DenoiseState, ptr %118, i32 0, i32 12
  %120 = getelementptr inbounds [2 x %struct.RNNState], ptr %119, i64 0, i64 0
  %121 = getelementptr inbounds nuw %struct.RNNState, ptr %120, i32 0, i32 1
  %122 = load ptr, ptr %121, align 8, !tbaa !74
  %123 = icmp ne ptr %122, null
  br i1 %123, label %124, label %131

124:                                              ; preds = %117
  %125 = load ptr, ptr %9, align 8, !tbaa !65
  %126 = getelementptr inbounds nuw %struct.DenoiseState, ptr %125, i32 0, i32 12
  %127 = getelementptr inbounds [2 x %struct.RNNState], ptr %126, i64 0, i64 0
  %128 = getelementptr inbounds nuw %struct.RNNState, ptr %127, i32 0, i32 2
  %129 = load ptr, ptr %128, align 8, !tbaa !76
  %130 = icmp ne ptr %129, null
  br i1 %130, label %132, label %131

131:                                              ; preds = %124, %117, %51
  store i32 -12, ptr %2, align 4
  store i32 1, ptr %7, align 4
  br label %133

132:                                              ; preds = %124
  store i32 0, ptr %7, align 4
  br label %133

133:                                              ; preds = %132, %131
  call void @llvm.lifetime.end.p0(i64 8, ptr %9) #11
  %134 = load i32, ptr %7, align 4
  switch i32 %134, label %139 [
    i32 0, label %135
  ]

135:                                              ; preds = %133
  br label %136

136:                                              ; preds = %135
  %137 = load i32, ptr %8, align 4, !tbaa !29
  %138 = add nsw i32 %137, 1
  store i32 %138, ptr %8, align 4, !tbaa !29
  br label %44, !llvm.loop !77

139:                                              ; preds = %133, %50
  call void @llvm.lifetime.end.p0(i64 4, ptr %8) #11
  %140 = load i32, ptr %7, align 4
  switch i32 %140, label %198 [
    i32 2, label %141
  ]

141:                                              ; preds = %139
  call void @llvm.lifetime.start.p0(i64 4, ptr %10) #11
  store i32 0, ptr %10, align 4, !tbaa !29
  br label %142

142:                                              ; preds = %191, %141
  %143 = load i32, ptr %10, align 4, !tbaa !29
  %144 = load ptr, ptr %5, align 8, !tbaa !22
  %145 = getelementptr inbounds nuw %struct.AudioRNNContext, ptr %144, i32 0, i32 3
  %146 = load i32, ptr %145, align 4, !tbaa !35
  %147 = icmp slt i32 %143, %146
  br i1 %147, label %149, label %148

148:                                              ; preds = %142
  store i32 5, ptr %7, align 4
  br label %194

149:                                              ; preds = %142
  call void @llvm.lifetime.start.p0(i64 8, ptr %11) #11
  %150 = load ptr, ptr %5, align 8, !tbaa !22
  %151 = getelementptr inbounds nuw %struct.AudioRNNContext, ptr %150, i32 0, i32 4
  %152 = load ptr, ptr %151, align 8, !tbaa !36
  %153 = load i32, ptr %10, align 4, !tbaa !29
  %154 = sext i32 %153 to i64
  %155 = getelementptr inbounds %struct.DenoiseState, ptr %152, i64 %154
  store ptr %155, ptr %11, align 8, !tbaa !65
  call void @llvm.lifetime.start.p0(i64 4, ptr %12) #11
  store float 1.000000e+00, ptr %12, align 4, !tbaa !30
  %156 = load ptr, ptr %11, align 8, !tbaa !65
  %157 = getelementptr inbounds nuw %struct.DenoiseState, ptr %156, i32 0, i32 13
  %158 = load ptr, ptr %157, align 8, !tbaa !78
  %159 = icmp ne ptr %158, null
  br i1 %159, label %166, label %160

160:                                              ; preds = %149
  %161 = load ptr, ptr %11, align 8, !tbaa !65
  %162 = getelementptr inbounds nuw %struct.DenoiseState, ptr %161, i32 0, i32 13
  %163 = load ptr, ptr %11, align 8, !tbaa !65
  %164 = getelementptr inbounds nuw %struct.DenoiseState, ptr %163, i32 0, i32 15
  %165 = call i32 @av_tx_init(ptr noundef %162, ptr noundef %164, i32 noundef 0, i32 noundef 0, i32 noundef 960, ptr noundef %12, i64 noundef 0)
  store i32 %165, ptr %6, align 4, !tbaa !29
  br label %166

166:                                              ; preds = %160, %149
  %167 = load i32, ptr %6, align 4, !tbaa !29
  %168 = icmp slt i32 %167, 0
  br i1 %168, label %169, label %171

169:                                              ; preds = %166
  %170 = load i32, ptr %6, align 4, !tbaa !29
  store i32 %170, ptr %2, align 4
  store i32 1, ptr %7, align 4
  br label %188

171:                                              ; preds = %166
  %172 = load ptr, ptr %11, align 8, !tbaa !65
  %173 = getelementptr inbounds nuw %struct.DenoiseState, ptr %172, i32 0, i32 14
  %174 = load ptr, ptr %173, align 16, !tbaa !81
  %175 = icmp ne ptr %174, null
  br i1 %175, label %182, label %176

176:                                              ; preds = %171
  %177 = load ptr, ptr %11, align 8, !tbaa !65
  %178 = getelementptr inbounds nuw %struct.DenoiseState, ptr %177, i32 0, i32 14
  %179 = load ptr, ptr %11, align 8, !tbaa !65
  %180 = getelementptr inbounds nuw %struct.DenoiseState, ptr %179, i32 0, i32 16
  %181 = call i32 @av_tx_init(ptr noundef %178, ptr noundef %180, i32 noundef 0, i32 noundef 1, i32 noundef 960, ptr noundef %12, i64 noundef 0)
  store i32 %181, ptr %6, align 4, !tbaa !29
  br label %182

182:                                              ; preds = %176, %171
  %183 = load i32, ptr %6, align 4, !tbaa !29
  %184 = icmp slt i32 %183, 0
  br i1 %184, label %185, label %187

185:                                              ; preds = %182
  %186 = load i32, ptr %6, align 4, !tbaa !29
  store i32 %186, ptr %2, align 4
  store i32 1, ptr %7, align 4
  br label %188

187:                                              ; preds = %182
  store i32 0, ptr %7, align 4
  br label %188

188:                                              ; preds = %187, %185, %169
  call void @llvm.lifetime.end.p0(i64 4, ptr %12) #11
  call void @llvm.lifetime.end.p0(i64 8, ptr %11) #11
  %189 = load i32, ptr %7, align 4
  switch i32 %189, label %194 [
    i32 0, label %190
  ]

190:                                              ; preds = %188
  br label %191

191:                                              ; preds = %190
  %192 = load i32, ptr %10, align 4, !tbaa !29
  %193 = add nsw i32 %192, 1
  store i32 %193, ptr %10, align 4, !tbaa !29
  br label %142, !llvm.loop !82

194:                                              ; preds = %188, %148
  call void @llvm.lifetime.end.p0(i64 4, ptr %10) #11
  %195 = load i32, ptr %7, align 4
  switch i32 %195, label %198 [
    i32 5, label %196
  ]

196:                                              ; preds = %194
  %197 = load i32, ptr %6, align 4, !tbaa !29
  store i32 %197, ptr %2, align 4
  store i32 1, ptr %7, align 4
  br label %198

198:                                              ; preds = %196, %194, %139, %42
  call void @llvm.lifetime.end.p0(i64 4, ptr %6) #11
  call void @llvm.lifetime.end.p0(i64 8, ptr %5) #11
  call void @llvm.lifetime.end.p0(i64 8, ptr %4) #11
  %199 = load i32, ptr %2, align 4
  ret i32 %199
}