; Function Attrs: nounwind uwtable
define internal i32 @config_input(ptr noundef readonly captures(none) %0) #1 {
  %2 = alloca float, align 4
  %3 = getelementptr inbounds nuw i8, ptr %0, i64 16
  %4 = load ptr, ptr %3, align 8, !tbaa !47
  %5 = getelementptr inbounds nuw i8, ptr %4, i64 72
  %6 = load ptr, ptr %5, align 8, !tbaa !4
  %7 = getelementptr inbounds nuw i8, ptr %0, i64 76
  %8 = load i32, ptr %7, align 4, !tbaa !59
  %9 = getelementptr inbounds nuw i8, ptr %6, i64 20
  store i32 %8, ptr %9, align 4, !tbaa !32
  %10 = getelementptr inbounds nuw i8, ptr %6, i64 24
  %11 = load ptr, ptr %10, align 8, !tbaa !33
  %.not = icmp eq ptr %11, null
  br i1 %.not, label %12, label %.critedge78.preheader

12:                                               ; preds = %1
  %13 = sext i32 %8 to i64
  %14 = tail call noalias ptr @av_calloc(i64 noundef %13, i64 noundef 20512) #11
  store ptr %14, ptr %10, align 8, !tbaa !33
  %15 = icmp eq ptr %14, null
  br i1 %15, label %.loopexit, label %..critedge78.preheader_crit_edge

..critedge78.preheader_crit_edge:                 ; preds = %12
  %.pre = load i32, ptr %9, align 4, !tbaa !32
  br label %.critedge78.preheader

.critedge78.preheader:                            ; preds = %..critedge78.preheader_crit_edge, %1
  %16 = phi i32 [ %.pre, %..critedge78.preheader_crit_edge ], [ %8, %1 ]
  %.not6280 = icmp sgt i32 %16, 0
  br i1 %.not6280, label %.lr.ph, label %.loopexit

.lr.ph:                                           ; preds = %.critedge78.preheader
  %17 = getelementptr inbounds nuw i8, ptr %6, i64 6176
  br label %21

.critedge78:                                      ; preds = %.critedge
  %indvars.iv.next = add nuw nsw i64 %indvars.iv, 1
  %18 = load i32, ptr %9, align 4, !tbaa !32
  %19 = sext i32 %18 to i64
  %.not62 = icmp slt i64 %indvars.iv.next, %19
  br i1 %.not62, label %21, label %.critedge67.preheader, !llvm.loop !63

.critedge67.preheader:                            ; preds = %.critedge78
  %20 = icmp sgt i32 %18, 0
  br i1 %20, label %.lr.ph86, label %.loopexit

21:                                               ; preds = %.lr.ph, %.critedge78
  %indvars.iv = phi i64 [ 0, %.lr.ph ], [ %indvars.iv.next, %.critedge78 ]
  %22 = load ptr, ptr %10, align 8, !tbaa !33
  %23 = load ptr, ptr %17, align 16, !tbaa !30
  %24 = getelementptr inbounds nuw %struct.DenoiseState, ptr %22, i64 %indvars.iv, i32 12
  %25 = getelementptr inbounds nuw i8, ptr %24, i64 24
  store ptr %23, ptr %25, align 8, !tbaa !64
  %26 = getelementptr inbounds nuw i8, ptr %23, i64 16
  %27 = load i32, ptr %26, align 8, !tbaa !66
  %28 = add nsw i32 %27, 15
  %29 = and i32 %28, -16
  %30 = sext i32 %29 to i64
  %31 = tail call noalias ptr @av_calloc(i64 noundef 4, i64 noundef %30) #11
  store ptr %31, ptr %24, align 8, !tbaa !70
  %32 = load ptr, ptr %17, align 16, !tbaa !30
  %33 = getelementptr inbounds nuw i8, ptr %32, i64 32
  %34 = load i32, ptr %33, align 8, !tbaa !71
  %35 = add nsw i32 %34, 15
  %36 = and i32 %35, -16
  %37 = sext i32 %36 to i64
  %38 = tail call noalias ptr @av_calloc(i64 noundef 4, i64 noundef %37) #11
  %39 = getelementptr inbounds nuw i8, ptr %24, i64 8
  store ptr %38, ptr %39, align 8, !tbaa !72
  %40 = load ptr, ptr %17, align 16, !tbaa !30
  %41 = getelementptr inbounds nuw i8, ptr %40, i64 48
  %42 = load i32, ptr %41, align 8, !tbaa !73
  %43 = add nsw i32 %42, 15
  %44 = and i32 %43, -16
  %45 = sext i32 %44 to i64
  %46 = tail call noalias ptr @av_calloc(i64 noundef 4, i64 noundef %45) #11
  %47 = getelementptr inbounds nuw i8, ptr %24, i64 16
  store ptr %46, ptr %47, align 8, !tbaa !74
  %48 = load ptr, ptr %24, align 8, !tbaa !70
  %.not59 = icmp eq ptr %48, null
  br i1 %.not59, label %.loopexit, label %.critedge

.critedge:                                        ; preds = %21
  %49 = load ptr, ptr %39, align 8, !tbaa !72
  %.not60 = icmp eq ptr %49, null
  %.not61 = icmp eq ptr %46, null
  %or.cond = select i1 %.not60, i1 true, i1 %.not61
  br i1 %or.cond, label %.loopexit, label %.critedge78

.lr.ph86:                                         ; preds = %.critedge67.preheader, %.critedge67
  %indvars.iv91 = phi i64 [ %indvars.iv.next92, %.critedge67 ], [ 0, %.critedge67.preheader ]
  %.04883 = phi i32 [ %.45275, %.critedge67 ], [ 0, %.critedge67.preheader ]
  %50 = load ptr, ptr %10, align 8, !tbaa !33
  %51 = getelementptr inbounds nuw %struct.DenoiseState, ptr %50, i64 %indvars.iv91
  call void @llvm.lifetime.start.p0(i64 4, ptr nonnull %2) #11
  store float 1.000000e+00, ptr %2, align 4, !tbaa !25
  %52 = getelementptr inbounds nuw i8, ptr %51, i64 20472
  %53 = load ptr, ptr %52, align 8, !tbaa !75
  %.not63 = icmp eq ptr %53, null
  br i1 %.not63, label %54, label %.thread95

54:                                               ; preds = %.lr.ph86
  %55 = getelementptr inbounds nuw i8, ptr %51, i64 20488
  %56 = call i32 @av_tx_init(ptr noundef nonnull %52, ptr noundef nonnull %55, i32 noundef 0, i32 noundef 0, i32 noundef 960, ptr noundef nonnull %2, i64 noundef 0) #11
  %57 = icmp slt i32 %56, 0
  br i1 %57, label %.thread, label %.thread95

.thread:                                          ; preds = %54
  call void @llvm.lifetime.end.p0(i64 4, ptr nonnull %2) #11
  br label %.loopexit

.thread95:                                        ; preds = %.lr.ph86, %54
  %.25097 = phi i32 [ %56, %54 ], [ %.04883, %.lr.ph86 ]
  %58 = getelementptr inbounds nuw i8, ptr %51, i64 20480
  %59 = load ptr, ptr %58, align 16, !tbaa !78
  %.not64 = icmp eq ptr %59, null
  br i1 %.not64, label %60, label %.thread71

.thread71:                                        ; preds = %.thread95
  call void @llvm.lifetime.end.p0(i64 4, ptr nonnull %2) #11
  br label %.critedge67

60:                                               ; preds = %.thread95
  %61 = getelementptr inbounds nuw i8, ptr %51, i64 20496
  %62 = call i32 @av_tx_init(ptr noundef nonnull %58, ptr noundef nonnull %61, i32 noundef 0, i32 noundef 1, i32 noundef 960, ptr noundef nonnull %2, i64 noundef 0) #11
  %63 = icmp sgt i32 %62, -1
  call void @llvm.lifetime.end.p0(i64 4, ptr nonnull %2) #11
  br i1 %63, label %.critedge67, label %.loopexit

.critedge67:                                      ; preds = %.thread71, %60
  %.45275 = phi i32 [ %.25097, %.thread71 ], [ %62, %60 ]
  %indvars.iv.next92 = add nuw nsw i64 %indvars.iv91, 1
  %64 = load i32, ptr %9, align 4, !tbaa !32
  %65 = sext i32 %64 to i64
  %.not65 = icmp slt i64 %indvars.iv.next92, %65
  br i1 %.not65, label %.lr.ph86, label %.loopexit, !llvm.loop !79

.loopexit:                                        ; preds = %21, %.critedge, %.critedge67, %60, %.critedge78.preheader, %.critedge67.preheader, %.thread, %12
  %.0 = phi i32 [ -12, %12 ], [ %56, %.thread ], [ 0, %.critedge67.preheader ], [ 0, %.critedge78.preheader ], [ %.45275, %.critedge67 ], [ %62, %60 ], [ -12, %.critedge ], [ -12, %21 ]
  ret i32 %.0
}